; Function Attrs: mustprogress nounwind uwtable
define dso_local noundef zeroext i1 @_ZN4llvm12GlobalStatus13analyzeGlobalEPKNS_5ValueERS0_(ptr noundef %0, ptr noundef nonnull align 8 dereferenceable(40) %1) local_unnamed_addr #0 align 2 {
  %3 = alloca %"class.llvm::SmallPtrSet.0", align 8
  %4 = getelementptr inbounds nuw i8, ptr %3, i64 32
  store ptr %4, ptr %3, align 8
  %5 = getelementptr inbounds nuw i8, ptr %3, i64 8
  store ptr %4, ptr %5, align 8
  %6 = getelementptr inbounds nuw i8, ptr %3, i64 16
  store i32 16, ptr %6, align 8
  %7 = getelementptr inbounds nuw i8, ptr %3, i64 20
  store i32 0, ptr %7, align 4
  %8 = getelementptr inbounds nuw i8, ptr %3, i64 24
  store i32 0, ptr %8, align 8
  %9 = call fastcc noundef zeroext i1 @_ZL16analyzeGlobalAuxPKN4llvm5ValueERNS_12GlobalStatusERNS_15SmallPtrSetImplIS2_EE(ptr noundef %0, ptr noundef nonnull align 8 dereferenceable(40) %1, ptr noundef nonnull align 8 dereferenceable(28) %3)
  %10 = load ptr, ptr %5, align 8
  %11 = load ptr, ptr %3, align 8
  %12 = icmp eq ptr %10, %11
  br i1 %12, label %_ZN4llvm11SmallPtrSetIPKNS_5ValueELj16EED2Ev.exit, label %13

13:                                               ; preds = %2
  call void @free(ptr noundef %10) #7
  br label %_ZN4llvm11SmallPtrSetIPKNS_5ValueELj16EED2Ev.exit

_ZN4llvm11SmallPtrSetIPKNS_5ValueELj16EED2Ev.exit: ; preds = %2, %13
  ret i1 %9
}